target datalayout = "e-m:e-p270:32:32-p271:32:32-p272:64:64-i64:64-i128:128-f80:128-n8:16:32:64-S128"
target triple = "x86_64-unknown-linux-gnu"

%struct.MemoryRegion = type { %struct.Object, i8, i8, i8, i8, i8, i8, i8, i8, i8, i8, ptr, ptr, ptr, ptr, ptr, ptr, i32, i128, i64, ptr, i64, i8, i8, i8, i8, i8, ptr, i64, i32, %union.anon, %union.anon.1, %union.anon.2, ptr, i32, ptr, ptr, i8 }
%struct.Object = type { ptr, ptr, ptr, i32, ptr }
%union.anon = type { %struct.QTailQLink }
%struct.QTailQLink = type { ptr, ptr }
%union.anon.1 = type { %struct.QTailQLink }
%union.anon.2 = type { %struct.QTailQLink }
%struct.MemTxAttrs = type { i32 }

@.str.1 = private unnamed_addr constant [25 x i8] c"../qemu/system/physmem.c\00", align 1

; Function Attrs: nounwind sspstrong uwtable
define internal void @stw_he_p(ptr noundef %ptr, i16 noundef zeroext %v) #0 {
entry:
  %ptr.addr = alloca ptr, align 8
  %v.addr = alloca i16, align 2
  store ptr %ptr, ptr %ptr.addr, align 8
  store i16 %v, ptr %v.addr, align 2
  %0 = load ptr, ptr %ptr.addr, align 8
  call void @llvm.memcpy.p0.p0.i64(ptr align 1 %0, ptr align 2 %v.addr, i64 2, i1 false)
  ret void
}

; Function Attrs: nounwind sspstrong uwtable
define dso_local void @qemu_flush_coalesced_mmio_buffer() #0 {
entry:
  ret void
}

; Function Attrs: nounwind sspstrong uwtable
define internal zeroext i1 @memory_region_is_romd(ptr noundef %mr) #0 {
entry:
  %mr.addr = alloca ptr, align 8
  store ptr %mr, ptr %mr.addr, align 8
  %0 = load ptr, ptr %mr.addr, align 8
  %rom_device = getelementptr inbounds %struct.MemoryRegion, ptr %0, i32 0, i32 6
  %1 = load i8, ptr %rom_device, align 1
  %tobool = trunc i8 %1 to i1
  br i1 %tobool, label %land.rhs, label %land.end

land.rhs:                                         ; preds = %entry
  %2 = load ptr, ptr %mr.addr, align 8
  %romd_mode = getelementptr inbounds %struct.MemoryRegion, ptr %2, i32 0, i32 1
  %3 = load i8, ptr %romd_mode, align 8
  %tobool1 = trunc i8 %3 to i1
  br label %land.end

land.end:                                         ; preds = %land.rhs, %entry
  %4 = phi i1 [ false, %entry ], [ %tobool1, %land.rhs ]
  ret i1 %4
}

; Function Attrs: nounwind sspstrong uwtable
define internal zeroext i1 @memory_region_is_ram(ptr noundef %mr) #0 {
entry:
  %mr.addr = alloca ptr, align 8
  store ptr %mr, ptr %mr.addr, align 8
  %0 = load ptr, ptr %mr.addr, align 8
  %ram = getelementptr inbounds %struct.MemoryRegion, ptr %0, i32 0, i32 2
  %1 = load i8, ptr %ram, align 1
  %tobool = trunc i8 %1 to i1
  ret i1 %tobool
}

; Function Attrs: nounwind sspstrong uwtable
define internal void @stw_be_p(ptr noundef %ptr, i16 noundef zeroext %v) #0 {
entry:
  %ptr.addr = alloca ptr, align 8
  %v.addr = alloca i16, align 2
  store ptr %ptr, ptr %ptr.addr, align 8
  store i16 %v, ptr %v.addr, align 2
  %0 = load ptr, ptr %ptr.addr, align 8
  %1 = load i16, ptr %v.addr, align 2
  %2 = call i16 @llvm.bswap.i16(i16 %1)
  call void @stw_he_p(ptr noundef %0, i16 noundef zeroext %2)
  ret void
}

; Function Attrs: nounwind sspstrong uwtable
define internal void @stw_le_p(ptr noundef %ptr, i16 noundef zeroext %v) #0 {
entry:
  %ptr.addr = alloca ptr, align 8
  %v.addr = alloca i16, align 2
  store ptr %ptr, ptr %ptr.addr, align 8
  store i16 %v, ptr %v.addr, align 2
  %0 = load ptr, ptr %ptr.addr, align 8
  %1 = load i16, ptr %v.addr, align 2
  call void @stw_he_p(ptr noundef %0, i16 noundef zeroext %1)
  ret void
}

; Function Attrs: nounwind sspstrong uwtable
define internal i32 @devend_memop(i32 noundef %end) #0 {
entry:
  %end.addr = alloca i32, align 4
  %non_host_endianness = alloca i32, align 4
  store i32 %end, ptr %end.addr, align 4
  store i32 1, ptr %non_host_endianness, align 4
  %0 = load i32, ptr %end.addr, align 4
  %cmp = icmp eq i32 %0, 1
  %cond = select i1 %cmp, i32 16, i32 0
  ret i32 %cond
}

; Function Attrs: nounwind sspstrong uwtable
define dso_local zeroext i1 @prepare_mmio_access(ptr noundef %mr) #0 {
entry:
  %mr.addr = alloca ptr, align 8
  %release_lock = alloca i8, align 1
  store ptr %mr, ptr %mr.addr, align 8
  store i8 0, ptr %release_lock, align 1
  %call = call zeroext i1 @qemu_mutex_iothread_locked()
  br i1 %call, label %if.end, label %if.then

if.then:                                          ; preds = %entry
  call void @qemu_mutex_lock_iothread_impl(ptr noundef @.str.1, i32 noundef 2643)
  store i8 1, ptr %release_lock, align 1
  br label %if.end

if.end:                                           ; preds = %if.then, %entry
  %0 = load ptr, ptr %mr.addr, align 8
  %flush_coalesced_mmio = getelementptr inbounds %struct.MemoryRegion, ptr %0, i32 0, i32 7
  %1 = load i8, ptr %flush_coalesced_mmio, align 2
  %tobool = trunc i8 %1 to i1
  br i1 %tobool, label %if.then1, label %if.end2

if.then1:                                         ; preds = %if.end
  call void @qemu_flush_coalesced_mmio_buffer()
  br label %if.end2

if.end2:                                          ; preds = %if.then1, %if.end
  %2 = load i8, ptr %release_lock, align 1
  %tobool3 = trunc i8 %2 to i1
  ret i1 %tobool3
}

; Function Attrs: nounwind sspstrong uwtable
define internal zeroext i1 @memory_access_is_direct(ptr noundef %mr, i1 noundef zeroext %is_write) #0 {
entry:
  %retval = alloca i1, align 1
  %mr.addr = alloca ptr, align 8
  %is_write.addr = alloca i8, align 1
  store ptr %mr, ptr %mr.addr, align 8
  %frombool = zext i1 %is_write to i8
  store i8 %frombool, ptr %is_write.addr, align 1
  %0 = load i8, ptr %is_write.addr, align 1
  %tobool = trunc i8 %0 to i1
  br i1 %tobool, label %if.then, label %if.else

if.then:                                          ; preds = %entry
  %1 = load ptr, ptr %mr.addr, align 8
  %call = call zeroext i1 @memory_region_is_ram(ptr noundef %1)
  br i1 %call, label %land.lhs.true, label %land.end

land.lhs.true:                                    ; preds = %if.then
  %2 = load ptr, ptr %mr.addr, align 8
  %readonly = getelementptr inbounds %struct.MemoryRegion, ptr %2, i32 0, i32 4
  %3 = load i8, ptr %readonly, align 1
  %tobool1 = trunc i8 %3 to i1
  br i1 %tobool1, label %land.end, label %land.lhs.true2

land.lhs.true2:                                   ; preds = %land.lhs.true
  %4 = load ptr, ptr %mr.addr, align 8
  %rom_device = getelementptr inbounds %struct.MemoryRegion, ptr %4, i32 0, i32 6
  %5 = load i8, ptr %rom_device, align 1
  %tobool3 = trunc i8 %5 to i1
  br i1 %tobool3, label %land.end, label %land.rhs

land.rhs:                                         ; preds = %land.lhs.true2
  %6 = load ptr, ptr %mr.addr, align 8
  %call4 = call zeroext i1 @memory_region_is_ram_device(ptr noundef %6)
  %lnot = xor i1 %call4, true
  br label %land.end

land.end:                                         ; preds = %land.rhs, %land.lhs.true2, %land.lhs.true, %if.then
  %7 = phi i1 [ false, %land.lhs.true2 ], [ false, %land.lhs.true ], [ false, %if.then ], [ %lnot, %land.rhs ]
  store i1 %7, ptr %retval, align 1
  br label %return

if.else:                                          ; preds = %entry
  %8 = load ptr, ptr %mr.addr, align 8
  %call5 = call zeroext i1 @memory_region_is_ram(ptr noundef %8)
  br i1 %call5, label %land.lhs.true6, label %lor.rhs

land.lhs.true6:                                   ; preds = %if.else
  %9 = load ptr, ptr %mr.addr, align 8
  %call7 = call zeroext i1 @memory_region_is_ram_device(ptr noundef %9)
  br i1 %call7, label %lor.rhs, label %lor.end

lor.rhs:                                          ; preds = %land.lhs.true6, %if.else
  %10 = load ptr, ptr %mr.addr, align 8
  %call8 = call zeroext i1 @memory_region_is_romd(ptr noundef %10)
  br label %lor.end

lor.end:                                          ; preds = %lor.rhs, %land.lhs.true6
  %11 = phi i1 [ true, %land.lhs.true6 ], [ %call8, %lor.rhs ]
  store i1 %11, ptr %retval, align 1
  br label %return

return:                                           ; preds = %lor.end, %land.end
  %12 = load i1, ptr %retval, align 1
  ret i1 %12
}

; Function Attrs: nounwind sspstrong uwtable
define internal void @address_space_stw_internal_cached_slow(ptr noundef %cache, i64 noundef %addr, i16 noundef zeroext %val, i32 %attrs.coerce, ptr noundef %result, i32 noundef %endian) #0 {
entry:
  %attrs = alloca %struct.MemTxAttrs, align 4
  %cache.addr = alloca ptr, align 8
  %addr.addr = alloca i64, align 8
  %val.addr = alloca i16, align 2
  %result.addr = alloca ptr, align 8
  %endian.addr = alloca i32, align 4
  %ptr = alloca ptr, align 8
  %mr = alloca ptr, align 8
  %l = alloca i64, align 8
  %addr1 = alloca i64, align 8
  %r = alloca i32, align 4
  %release_lock = alloca i8, align 1
  %coerce.dive = getelementptr inbounds %struct.MemTxAttrs, ptr %attrs, i32 0, i32 0
  store i32 %attrs.coerce, ptr %coerce.dive, align 4
  store ptr %cache, ptr %cache.addr, align 8
  store i64 %addr, ptr %addr.addr, align 8
  store i16 %val, ptr %val.addr, align 2
  store ptr %result, ptr %result.addr, align 8
  store i32 %endian, ptr %endian.addr, align 4
  store i64 2, ptr %l, align 8
  store i8 0, ptr %release_lock, align 1
  %0 = load ptr, ptr %cache.addr, align 8
  %1 = load i64, ptr %addr.addr, align 8
  %coerce.dive1 = getelementptr inbounds %struct.MemTxAttrs, ptr %attrs, i32 0, i32 0
  %2 = load i32, ptr %coerce.dive1, align 4
  %call = call ptr @address_space_translate_cached(ptr noundef %0, i64 noundef %1, ptr noundef %addr1, ptr noundef %l, i1 noundef zeroext true, i32 %2)
  store ptr %call, ptr %mr, align 8
  %3 = load i64, ptr %l, align 8
  %cmp = icmp ult i64 %3, 2
  br i1 %cmp, label %if.then, label %lor.lhs.false

lor.lhs.false:                                    ; preds = %entry
  %4 = load ptr, ptr %mr, align 8
  %call2 = call zeroext i1 @memory_access_is_direct(ptr noundef %4, i1 noundef zeroext true)
  br i1 %call2, label %if.else, label %if.then

if.then:                                          ; preds = %lor.lhs.false, %entry
  %5 = load ptr, ptr %mr, align 8
  %call3 = call zeroext i1 @prepare_mmio_access(ptr noundef %5)
  %conv = zext i1 %call3 to i32
  %6 = load i8, ptr %release_lock, align 1
  %tobool = trunc i8 %6 to i1
  %conv4 = zext i1 %tobool to i32
  %or = or i32 %conv4, %conv
  %tobool5 = icmp ne i32 %or, 0
  %frombool = zext i1 %tobool5 to i8
  store i8 %frombool, ptr %release_lock, align 1
  %7 = load ptr, ptr %mr, align 8
  %8 = load i64, ptr %addr1, align 8
  %9 = load i16, ptr %val.addr, align 2
  %conv6 = zext i16 %9 to i64
  %10 = load i32, ptr %endian.addr, align 4
  %call7 = call i32 @devend_memop(i32 noundef %10)
  %or8 = or i32 1, %call7
  %coerce.dive9 = getelementptr inbounds %struct.MemTxAttrs, ptr %attrs, i32 0, i32 0
  %11 = load i32, ptr %coerce.dive9, align 4
  %call10 = call i32 @memory_region_dispatch_write(ptr noundef %7, i64 noundef %8, i64 noundef %conv6, i32 noundef %or8, i32 %11)
  store i32 %call10, ptr %r, align 4
  br label %if.end

if.else:                                          ; preds = %lor.lhs.false
  %12 = load ptr, ptr %mr, align 8
  %ram_block = getelementptr inbounds %struct.MemoryRegion, ptr %12, i32 0, i32 11
  %13 = load ptr, ptr %ram_block, align 8
  %14 = load i64, ptr %addr1, align 8
  %call11 = call ptr @qemu_map_ram_ptr(ptr noundef %13, i64 noundef %14)
  store ptr %call11, ptr %ptr, align 8
  %15 = load i32, ptr %endian.addr, align 4
  switch i32 %15, label %sw.default [
    i32 2, label %sw.bb
    i32 1, label %sw.bb12
  ]

sw.bb:                                            ; preds = %if.else
  %16 = load ptr, ptr %ptr, align 8
  %17 = load i16, ptr %val.addr, align 2
  call void @stw_le_p(ptr noundef %16, i16 noundef zeroext %17)
  br label %sw.epilog

sw.bb12:                                          ; preds = %if.else
  %18 = load ptr, ptr %ptr, align 8
  %19 = load i16, ptr %val.addr, align 2
  call void @stw_be_p(ptr noundef %18, i16 noundef zeroext %19)
  br label %sw.epilog

sw.default:                                       ; preds = %if.else
  %20 = load ptr, ptr %ptr, align 8
  %21 = load i16, ptr %val.addr, align 2
  call void @stw_le_p(ptr noundef %20, i16 noundef zeroext %21)
  br label %sw.epilog

sw.epilog:                                        ; preds = %sw.default, %sw.bb12, %sw.bb
  %22 = load ptr, ptr %mr, align 8
  %23 = load i64, ptr %addr1, align 8
  call void @invalidate_and_set_dirty(ptr noundef %22, i64 noundef %23, i64 noundef 2)
  store i32 0, ptr %r, align 4
  br label %if.end

if.end:                                           ; preds = %sw.epilog, %if.then
  %24 = load ptr, ptr %result.addr, align 8
  %tobool13 = icmp ne ptr %24, null
  br i1 %tobool13, label %if.then14, label %if.end15

if.then14:                                        ; preds = %if.end
  %25 = load i32, ptr %r, align 4
  %26 = load ptr, ptr %result.addr, align 8
  store i32 %25, ptr %26, align 4
  br label %if.end15

if.end15:                                         ; preds = %if.then14, %if.end
  %27 = load i8, ptr %release_lock, align 1
  %tobool16 = trunc i8 %27 to i1
  br i1 %tobool16, label %if.then17, label %if.end18

if.then17:                                        ; preds = %if.end15
  call void @qemu_mutex_unlock_iothread()
  br label %if.end18

if.end18:                                         ; preds = %if.then17, %if.end15
  ret void
}